target datalayout = "e-m:e-p270:32:32-p271:32:32-p272:64:64-i64:64-i128:128-f80:128-n8:16:32:64-S128"
target triple = "x86_64-pc-linux-gnu"

@.str.457 = private unnamed_addr constant [49 x i8] c"job_create_request: strlen(%s) too big (%d > %d)\00", align 1

; Function Attrs: nounwind uwtable
define internal i32 @_test_strlen(ptr noundef %0, ptr noundef %1, i32 noundef %2) #0 {
  %4 = alloca i32, align 4
  %5 = alloca ptr, align 8
  %6 = alloca ptr, align 8
  %7 = alloca i32, align 4
  %8 = alloca i32, align 4
  %9 = alloca i32, align 4
  store ptr %0, ptr %5, align 8
  store ptr %1, ptr %6, align 8
  store i32 %2, ptr %7, align 4
  call void @llvm.lifetime.start.p0(i64 4, ptr %8) #13
  store i32 0, ptr %8, align 4
  %10 = load ptr, ptr %5, align 8
  %11 = icmp ne ptr %10, null
  br i1 %11, label %12, label %16

12:                                               ; preds = %3
  %13 = load ptr, ptr %5, align 8
  %14 = call i64 @strlen(ptr noundef %13) #16
  %15 = trunc i64 %14 to i32
  store i32 %15, ptr %8, align 4
  br label %16

16:                                               ; preds = %12, %3
  %17 = load i32, ptr %8, align 4
  %18 = load i32, ptr %7, align 4
  %19 = icmp sgt i32 %17, %18
  br i1 %19, label %20, label %34

20:                                               ; preds = %16
  br label %21

21:                                               ; preds = %20
  br label %22

22:                                               ; preds = %21
  %23 = call i32 @get_log_level()
  %24 = icmp sge i32 %23, 3
  br i1 %24, label %25, label %29

25:                                               ; preds = %22
  %26 = load ptr, ptr %6, align 8
  %27 = load i32, ptr %8, align 4
  %28 = load i32, ptr %7, align 4
  call void (i32, ptr, ...) @log_var(i32 noundef 3, ptr noundef @.str.457, ptr noundef %26, i32 noundef %27, i32 noundef %28)
  br label %29

29:                                               ; preds = %25, %22
  br label %30

30:                                               ; preds = %29
  br label %31

31:                                               ; preds = %30
  br label %32

32:                                               ; preds = %31
  br label %33

33:                                               ; preds = %32
  store i32 2012, ptr %4, align 4
  store i32 1, ptr %9, align 4
  br label %35

34:                                               ; preds = %16
  store i32 0, ptr %4, align 4
  store i32 1, ptr %9, align 4
  br label %35

35:                                               ; preds = %34, %33
  call void @llvm.lifetime.end.p0(i64 4, ptr %8) #13
  %36 = load i32, ptr %4, align 4
  ret i32 %36
}