; Function Attrs: nounwind uwtable
define internal fastcc range(i32 0, 2013) i32 @_test_strlen(ptr noundef readonly captures(address_is_null) %0, ptr noundef %1, i32 noundef %2) unnamed_addr #0 {
  %.not = icmp eq ptr %0, null
  br i1 %.not, label %7, label %4

4:                                                ; preds = %3
  %5 = tail call i64 @strlen(ptr noundef nonnull dereferenceable(1) %0) #30
  %6 = trunc i64 %5 to i32
  br label %7

7:                                                ; preds = %4, %3
  %.0 = phi i32 [ %6, %4 ], [ 0, %3 ]
  %8 = icmp sgt i32 %.0, %2
  br i1 %8, label %9, label %13

9:                                                ; preds = %7
  %10 = tail call i32 @get_log_level() #27
  %11 = icmp sgt i32 %10, 2
  br i1 %11, label %12, label %13

12:                                               ; preds = %9
  tail call void (i32, ptr, ...) @log_var(i32 noundef 3, ptr noundef nonnull @.str.457, ptr noundef %1, i32 noundef %.0, i32 noundef %2) #27
  br label %13

13:                                               ; preds = %7, %9, %12
  %.07 = phi i32 [ 2012, %12 ], [ 2012, %9 ], [ 0, %7 ]
  ret i32 %.07
}